; Function Attrs: mustprogress nofree norecurse nosync nounwind memory(readwrite, inaccessiblemem: none) uwtable
define void @_Z14CopyCalcSingleRKSt6vectorIiSaIiEE(ptr noundef nonnull readonly align 8 captures(none) dereferenceable(24) %0) local_unnamed_addr #5 {
  %2 = getelementptr inbounds nuw i8, ptr %0, i64 8
  %3 = load ptr, ptr %2, align 8
  %4 = load ptr, ptr %0, align 8
  %.not = icmp eq ptr %3, %4
  br i1 %.not, label %._crit_edge, label %.lr.ph

.lr.ph:                                           ; preds = %1, %.loopexit
  %5 = phi ptr [ %23, %.loopexit ], [ %4, %1 ]
  %6 = phi ptr [ %24, %.loopexit ], [ %3, %1 ]
  %7 = phi i64 [ %26, %.loopexit ], [ 0, %1 ]
  %.01115 = phi i32 [ %25, %.loopexit ], [ 0, %1 ]
  %8 = getelementptr inbounds nuw i32, ptr %5, i64 %7
  %9 = load i32, ptr %8, align 4
  %10 = icmp eq i32 %9, -1
  br i1 %10, label %.loopexit, label %.preheader

.preheader:                                       ; preds = %.lr.ph
  %.idx13 = mul nuw nsw i64 %7, 216
  br label %11

11:                                               ; preds = %.preheader, %11
  %indvars.iv = phi i64 [ 0, %.preheader ], [ %indvars.iv.next, %11 ]
  %12 = load ptr, ptr getelementptr inbounds nuw (i8, ptr @cparam, i64 16), align 8
  %13 = load ptr, ptr %0, align 8
  %14 = getelementptr inbounds nuw i32, ptr %13, i64 %7
  %15 = load i32, ptr %14, align 4
  %16 = sext i32 %15 to i64
  %.idx = mul nsw i64 %16, 216
  %17 = getelementptr i8, ptr %12, i64 168
  %18 = getelementptr i8, ptr %17, i64 %.idx
  %19 = getelementptr inbounds nuw [13 x i32], ptr %18, i64 0, i64 %indvars.iv
  %20 = load i32, ptr %19, align 4
  %21 = getelementptr i8, ptr %17, i64 %.idx13
  %22 = getelementptr inbounds nuw [13 x i32], ptr %21, i64 0, i64 %indvars.iv
  store i32 %20, ptr %22, align 4
  %indvars.iv.next = add nuw nsw i64 %indvars.iv, 1
  %exitcond.not = icmp eq i64 %indvars.iv.next, 4
  br i1 %exitcond.not, label %.loopexit.loopexit, label %11, !llvm.loop !6

.loopexit.loopexit:                               ; preds = %11
  %.pre = load ptr, ptr %2, align 8
  %.pre17 = load ptr, ptr %0, align 8
  br label %.loopexit

.loopexit:                                        ; preds = %.loopexit.loopexit, %.lr.ph
  %23 = phi ptr [ %.pre17, %.loopexit.loopexit ], [ %5, %.lr.ph ]
  %24 = phi ptr [ %.pre, %.loopexit.loopexit ], [ %6, %.lr.ph ]
  %25 = add i32 %.01115, 1
  %26 = zext i32 %25 to i64
  %27 = ptrtoint ptr %24 to i64
  %28 = ptrtoint ptr %23 to i64
  %29 = sub i64 %27, %28
  %30 = ashr exact i64 %29, 2
  %31 = icmp ugt i64 %30, %26
  br i1 %31, label %.lr.ph, label %._crit_edge, !llvm.loop !7

._crit_edge:                                      ; preds = %.loopexit, %1
  ret void
}